; Function Attrs: mustprogress uwtable
define internal void @_ZL14ustrenum_closeP12UEnumeration(ptr noundef %0) #9 {
  %2 = getelementptr inbounds nuw i8, ptr %0, i64 8
  %3 = load ptr, ptr %2, align 8, !tbaa !27
  %4 = icmp eq ptr %3, null
  br i1 %4, label %9, label %5

5:                                                ; preds = %1
  %6 = load ptr, ptr %3, align 8, !tbaa !3
  %7 = getelementptr inbounds nuw i8, ptr %6, i64 8
  %8 = load ptr, ptr %7, align 8
  tail call void %8(ptr noundef nonnull align 8 dereferenceable(116) %3) #18
  br label %9

9:                                                ; preds = %5, %1
  tail call void @uprv_free_77(ptr noundef nonnull %0)
  ret void
}